target datalayout = "e-m:e-p270:32:32-p271:32:32-p272:64:64-i64:64-i128:128-f80:128-n8:16:32:64-S128"
target triple = "x86_64-pc-linux-gnu"

%struct.Map_ManStruct_t_ = type { ptr, i32, ptr, i32, ptr, i32, i32, ptr, ptr, ptr, ptr, ptr, ptr, ptr, ptr, i32, i32, i32, i32, float, float, float, float, i32, i32, float, i32, i32, i32, i32, ptr, [6 x [2 x i32]], [10 x [32 x i32]], [32 x i32], [32 x i32], ptr, ptr, ptr, ptr, ptr, ptr, i32, i32, i32, i32, i32, i32, i64, i64, i64, i64, i64, i64, i64, i64, i64, i64, i64 }
%struct.Map_NodeVecStruct_t_ = type { ptr, i32, i32 }
%struct.Map_NodeStruct_t_ = type { ptr, ptr, i32, i32, i32, i32, [3 x i32], [3 x float], float, ptr, ptr, ptr, ptr, [2 x %struct.Map_TimeStruct_t_], [2 x %struct.Map_TimeStruct_t_], [2 x ptr], ptr, ptr, ptr }
%struct.Map_TimeStruct_t_ = type { float, float, float }
%struct.Map_CutStruct_t_ = type { ptr, ptr, ptr, [6 x ptr], i32, i8, i8, i8, i8, [2 x %struct.Map_MatchStruct_t_] }
%struct.Map_MatchStruct_t_ = type { ptr, i32, i32, ptr, %struct.Map_TimeStruct_t_, float }

; Function Attrs: nounwind uwtable
define void @Map_TruthsCutOne(ptr noundef %0, ptr noundef %1, ptr noundef %2) #0 {
  %4 = alloca ptr, align 8
  %5 = alloca ptr, align 8
  %6 = alloca ptr, align 8
  %7 = alloca [2 x i32], align 4
  %8 = alloca [2 x i32], align 4
  %9 = alloca ptr, align 8
  %10 = alloca i32, align 4
  store ptr %0, ptr %4, align 8, !tbaa !3
  store ptr %1, ptr %5, align 8, !tbaa !53
  store ptr %2, ptr %6, align 8, !tbaa !59
  call void @llvm.lifetime.start.p0(i64 8, ptr %7) #4
  call void @llvm.lifetime.start.p0(i64 8, ptr %8) #4
  call void @llvm.lifetime.start.p0(i64 8, ptr %9) #4
  store ptr null, ptr %9, align 8, !tbaa !53
  call void @llvm.lifetime.start.p0(i64 4, ptr %10) #4
  store i32 0, ptr %10, align 4, !tbaa !26
  br label %11

11:                                               ; preds = %51, %3
  %12 = load i32, ptr %10, align 4, !tbaa !26
  %13 = load ptr, ptr %5, align 8, !tbaa !53
  %14 = getelementptr inbounds nuw %struct.Map_CutStruct_t_, ptr %13, i32 0, i32 5
  %15 = load i8, ptr %14, align 4, !tbaa !57
  %16 = sext i8 %15 to i32
  %17 = icmp slt i32 %12, %16
  br i1 %17, label %18, label %54

18:                                               ; preds = %11
  %19 = load ptr, ptr %5, align 8, !tbaa !53
  %20 = getelementptr inbounds nuw %struct.Map_CutStruct_t_, ptr %19, i32 0, i32 3
  %21 = load i32, ptr %10, align 4, !tbaa !26
  %22 = sext i32 %21 to i64
  %23 = getelementptr inbounds [6 x ptr], ptr %20, i64 0, i64 %22
  %24 = load ptr, ptr %23, align 8, !tbaa !32
  %25 = getelementptr inbounds nuw %struct.Map_NodeStruct_t_, ptr %24, i32 0, i32 16
  %26 = load ptr, ptr %25, align 8, !tbaa !33
  store ptr %26, ptr %9, align 8, !tbaa !53
  %27 = load ptr, ptr %9, align 8, !tbaa !53
  %28 = getelementptr inbounds nuw %struct.Map_CutStruct_t_, ptr %27, i32 0, i32 7
  store i8 1, ptr %28, align 2, !tbaa !63
  %29 = load ptr, ptr %4, align 8, !tbaa !3
  %30 = getelementptr inbounds nuw %struct.Map_ManStruct_t_, ptr %29, i32 0, i32 31
  %31 = load i32, ptr %10, align 4, !tbaa !26
  %32 = sext i32 %31 to i64
  %33 = getelementptr inbounds [6 x [2 x i32]], ptr %30, i64 0, i64 %32
  %34 = getelementptr inbounds [2 x i32], ptr %33, i64 0, i64 0
  %35 = load i32, ptr %34, align 8, !tbaa !26
  %36 = load ptr, ptr %9, align 8, !tbaa !53
  %37 = getelementptr inbounds nuw %struct.Map_CutStruct_t_, ptr %36, i32 0, i32 9
  %38 = getelementptr inbounds [2 x %struct.Map_MatchStruct_t_], ptr %37, i64 0, i64 0
  %39 = getelementptr inbounds nuw %struct.Map_MatchStruct_t_, ptr %38, i32 0, i32 2
  store i32 %35, ptr %39, align 4, !tbaa !49
  %40 = load ptr, ptr %4, align 8, !tbaa !3
  %41 = getelementptr inbounds nuw %struct.Map_ManStruct_t_, ptr %40, i32 0, i32 31
  %42 = load i32, ptr %10, align 4, !tbaa !26
  %43 = sext i32 %42 to i64
  %44 = getelementptr inbounds [6 x [2 x i32]], ptr %41, i64 0, i64 %43
  %45 = getelementptr inbounds [2 x i32], ptr %44, i64 0, i64 1
  %46 = load i32, ptr %45, align 4, !tbaa !26
  %47 = load ptr, ptr %9, align 8, !tbaa !53
  %48 = getelementptr inbounds nuw %struct.Map_CutStruct_t_, ptr %47, i32 0, i32 9
  %49 = getelementptr inbounds [2 x %struct.Map_MatchStruct_t_], ptr %48, i64 0, i64 1
  %50 = getelementptr inbounds nuw %struct.Map_MatchStruct_t_, ptr %49, i32 0, i32 2
  store i32 %46, ptr %50, align 4, !tbaa !49
  br label %51

51:                                               ; preds = %18
  %52 = load i32, ptr %10, align 4, !tbaa !26
  %53 = add nsw i32 %52, 1
  store i32 %53, ptr %10, align 4, !tbaa !26
  br label %11, !llvm.loop !64

54:                                               ; preds = %11
  %55 = load ptr, ptr %4, align 8, !tbaa !3
  %56 = getelementptr inbounds nuw %struct.Map_ManStruct_t_, ptr %55, i32 0, i32 35
  %57 = load ptr, ptr %56, align 8, !tbaa !65
  %58 = getelementptr inbounds nuw %struct.Map_NodeVecStruct_t_, ptr %57, i32 0, i32 1
  store i32 0, ptr %58, align 8, !tbaa !24
  %59 = load ptr, ptr %5, align 8, !tbaa !53
  %60 = load ptr, ptr %4, align 8, !tbaa !3
  %61 = getelementptr inbounds nuw %struct.Map_ManStruct_t_, ptr %60, i32 0, i32 35
  %62 = load ptr, ptr %61, align 8, !tbaa !65
  call void @Map_CutsCollect_rec(ptr noundef %59, ptr noundef %62)
  %63 = load ptr, ptr %4, align 8, !tbaa !3
  %64 = getelementptr inbounds nuw %struct.Map_ManStruct_t_, ptr %63, i32 0, i32 35
  %65 = load ptr, ptr %64, align 8, !tbaa !65
  %66 = getelementptr inbounds nuw %struct.Map_NodeVecStruct_t_, ptr %65, i32 0, i32 1
  %67 = load i32, ptr %66, align 8, !tbaa !24
  %68 = trunc i32 %67 to i8
  %69 = load ptr, ptr %5, align 8, !tbaa !53
  %70 = getelementptr inbounds nuw %struct.Map_CutStruct_t_, ptr %69, i32 0, i32 6
  store i8 %68, ptr %70, align 1, !tbaa !66
  store i32 0, ptr %10, align 4, !tbaa !26
  br label %71

71:                                               ; preds = %89, %54
  %72 = load i32, ptr %10, align 4, !tbaa !26
  %73 = load ptr, ptr %5, align 8, !tbaa !53
  %74 = getelementptr inbounds nuw %struct.Map_CutStruct_t_, ptr %73, i32 0, i32 5
  %75 = load i8, ptr %74, align 4, !tbaa !57
  %76 = sext i8 %75 to i32
  %77 = icmp slt i32 %72, %76
  br i1 %77, label %78, label %92

78:                                               ; preds = %71
  %79 = load ptr, ptr %5, align 8, !tbaa !53
  %80 = getelementptr inbounds nuw %struct.Map_CutStruct_t_, ptr %79, i32 0, i32 3
  %81 = load i32, ptr %10, align 4, !tbaa !26
  %82 = sext i32 %81 to i64
  %83 = getelementptr inbounds [6 x ptr], ptr %80, i64 0, i64 %82
  %84 = load ptr, ptr %83, align 8, !tbaa !32
  %85 = getelementptr inbounds nuw %struct.Map_NodeStruct_t_, ptr %84, i32 0, i32 16
  %86 = load ptr, ptr %85, align 8, !tbaa !33
  store ptr %86, ptr %9, align 8, !tbaa !53
  %87 = load ptr, ptr %9, align 8, !tbaa !53
  %88 = getelementptr inbounds nuw %struct.Map_CutStruct_t_, ptr %87, i32 0, i32 7
  store i8 0, ptr %88, align 2, !tbaa !63
  br label %89

89:                                               ; preds = %78
  %90 = load i32, ptr %10, align 4, !tbaa !26
  %91 = add nsw i32 %90, 1
  store i32 %91, ptr %10, align 4, !tbaa !26
  br label %71, !llvm.loop !67

92:                                               ; preds = %71
  store i32 0, ptr %10, align 4, !tbaa !26
  br label %93

93:                                               ; preds = %270, %92
  %94 = load i32, ptr %10, align 4, !tbaa !26
  %95 = load ptr, ptr %4, align 8, !tbaa !3
  %96 = getelementptr inbounds nuw %struct.Map_ManStruct_t_, ptr %95, i32 0, i32 35
  %97 = load ptr, ptr %96, align 8, !tbaa !65
  %98 = getelementptr inbounds nuw %struct.Map_NodeVecStruct_t_, ptr %97, i32 0, i32 1
  %99 = load i32, ptr %98, align 8, !tbaa !24
  %100 = icmp slt i32 %94, %99
  br i1 %100, label %101, label %273

101:                                              ; preds = %93
  %102 = load ptr, ptr %4, align 8, !tbaa !3
  %103 = getelementptr inbounds nuw %struct.Map_ManStruct_t_, ptr %102, i32 0, i32 35
  %104 = load ptr, ptr %103, align 8, !tbaa !65
  %105 = getelementptr inbounds nuw %struct.Map_NodeVecStruct_t_, ptr %104, i32 0, i32 0
  %106 = load ptr, ptr %105, align 8, !tbaa !31
  %107 = load i32, ptr %10, align 4, !tbaa !26
  %108 = sext i32 %107 to i64
  %109 = getelementptr inbounds ptr, ptr %106, i64 %108
  %110 = load ptr, ptr %109, align 8, !tbaa !32
  store ptr %110, ptr %9, align 8, !tbaa !53
  %111 = load ptr, ptr %9, align 8, !tbaa !53
  %112 = getelementptr inbounds nuw %struct.Map_CutStruct_t_, ptr %111, i32 0, i32 7
  store i8 0, ptr %112, align 2, !tbaa !63
  %113 = load ptr, ptr %9, align 8, !tbaa !53
  %114 = getelementptr inbounds nuw %struct.Map_CutStruct_t_, ptr %113, i32 0, i32 1
  %115 = load ptr, ptr %114, align 8, !tbaa !68
  %116 = ptrtoint ptr %115 to i64
  %117 = and i64 %116, 1
  %118 = trunc i64 %117 to i32
  %119 = icmp ne i32 %118, 0
  br i1 %119, label %120, label %145

120:                                              ; preds = %101
  %121 = load ptr, ptr %9, align 8, !tbaa !53
  %122 = getelementptr inbounds nuw %struct.Map_CutStruct_t_, ptr %121, i32 0, i32 1
  %123 = load ptr, ptr %122, align 8, !tbaa !68
  %124 = ptrtoint ptr %123 to i64
  %125 = and i64 %124, -2
  %126 = inttoptr i64 %125 to ptr
  %127 = getelementptr inbounds nuw %struct.Map_CutStruct_t_, ptr %126, i32 0, i32 9
  %128 = getelementptr inbounds [2 x %struct.Map_MatchStruct_t_], ptr %127, i64 0, i64 0
  %129 = getelementptr inbounds nuw %struct.Map_MatchStruct_t_, ptr %128, i32 0, i32 2
  %130 = load i32, ptr %129, align 4, !tbaa !49
  %131 = xor i32 %130, -1
  %132 = getelementptr inbounds [2 x i32], ptr %7, i64 0, i64 0
  store i32 %131, ptr %132, align 4, !tbaa !26
  %133 = load ptr, ptr %9, align 8, !tbaa !53
  %134 = getelementptr inbounds nuw %struct.Map_CutStruct_t_, ptr %133, i32 0, i32 1
  %135 = load ptr, ptr %134, align 8, !tbaa !68
  %136 = ptrtoint ptr %135 to i64
  %137 = and i64 %136, -2
  %138 = inttoptr i64 %137 to ptr
  %139 = getelementptr inbounds nuw %struct.Map_CutStruct_t_, ptr %138, i32 0, i32 9
  %140 = getelementptr inbounds [2 x %struct.Map_MatchStruct_t_], ptr %139, i64 0, i64 1
  %141 = getelementptr inbounds nuw %struct.Map_MatchStruct_t_, ptr %140, i32 0, i32 2
  %142 = load i32, ptr %141, align 4, !tbaa !49
  %143 = xor i32 %142, -1
  %144 = getelementptr inbounds [2 x i32], ptr %7, i64 0, i64 1
  store i32 %143, ptr %144, align 4, !tbaa !26
  br label %168

145:                                              ; preds = %101
  %146 = load ptr, ptr %9, align 8, !tbaa !53
  %147 = getelementptr inbounds nuw %struct.Map_CutStruct_t_, ptr %146, i32 0, i32 1
  %148 = load ptr, ptr %147, align 8, !tbaa !68
  %149 = ptrtoint ptr %148 to i64
  %150 = and i64 %149, -2
  %151 = inttoptr i64 %150 to ptr
  %152 = getelementptr inbounds nuw %struct.Map_CutStruct_t_, ptr %151, i32 0, i32 9
  %153 = getelementptr inbounds [2 x %struct.Map_MatchStruct_t_], ptr %152, i64 0, i64 0
  %154 = getelementptr inbounds nuw %struct.Map_MatchStruct_t_, ptr %153, i32 0, i32 2
  %155 = load i32, ptr %154, align 4, !tbaa !49
  %156 = getelementptr inbounds [2 x i32], ptr %7, i64 0, i64 0
  store i32 %155, ptr %156, align 4, !tbaa !26
  %157 = load ptr, ptr %9, align 8, !tbaa !53
  %158 = getelementptr inbounds nuw %struct.Map_CutStruct_t_, ptr %157, i32 0, i32 1
  %159 = load ptr, ptr %158, align 8, !tbaa !68
  %160 = ptrtoint ptr %159 to i64
  %161 = and i64 %160, -2
  %162 = inttoptr i64 %161 to ptr
  %163 = getelementptr inbounds nuw %struct.Map_CutStruct_t_, ptr %162, i32 0, i32 9
  %164 = getelementptr inbounds [2 x %struct.Map_MatchStruct_t_], ptr %163, i64 0, i64 1
  %165 = getelementptr inbounds nuw %struct.Map_MatchStruct_t_, ptr %164, i32 0, i32 2
  %166 = load i32, ptr %165, align 4, !tbaa !49
  %167 = getelementptr inbounds [2 x i32], ptr %7, i64 0, i64 1
  store i32 %166, ptr %167, align 4, !tbaa !26
  br label %168

168:                                              ; preds = %145, %120
  %169 = load ptr, ptr %9, align 8, !tbaa !53
  %170 = getelementptr inbounds nuw %struct.Map_CutStruct_t_, ptr %169, i32 0, i32 2
  %171 = load ptr, ptr %170, align 8, !tbaa !69
  %172 = ptrtoint ptr %171 to i64
  %173 = and i64 %172, 1
  %174 = trunc i64 %173 to i32
  %175 = icmp ne i32 %174, 0
  br i1 %175, label %176, label %201

176:                                              ; preds = %168
  %177 = load ptr, ptr %9, align 8, !tbaa !53
  %178 = getelementptr inbounds nuw %struct.Map_CutStruct_t_, ptr %177, i32 0, i32 2
  %179 = load ptr, ptr %178, align 8, !tbaa !69
  %180 = ptrtoint ptr %179 to i64
  %181 = and i64 %180, -2
  %182 = inttoptr i64 %181 to ptr
  %183 = getelementptr inbounds nuw %struct.Map_CutStruct_t_, ptr %182, i32 0, i32 9
  %184 = getelementptr inbounds [2 x %struct.Map_MatchStruct_t_], ptr %183, i64 0, i64 0
  %185 = getelementptr inbounds nuw %struct.Map_MatchStruct_t_, ptr %184, i32 0, i32 2
  %186 = load i32, ptr %185, align 4, !tbaa !49
  %187 = xor i32 %186, -1
  %188 = getelementptr inbounds [2 x i32], ptr %8, i64 0, i64 0
  store i32 %187, ptr %188, align 4, !tbaa !26
  %189 = load ptr, ptr %9, align 8, !tbaa !53
  %190 = getelementptr inbounds nuw %struct.Map_CutStruct_t_, ptr %189, i32 0, i32 2
  %191 = load ptr, ptr %190, align 8, !tbaa !69
  %192 = ptrtoint ptr %191 to i64
  %193 = and i64 %192, -2
  %194 = inttoptr i64 %193 to ptr
  %195 = getelementptr inbounds nuw %struct.Map_CutStruct_t_, ptr %194, i32 0, i32 9
  %196 = getelementptr inbounds [2 x %struct.Map_MatchStruct_t_], ptr %195, i64 0, i64 1
  %197 = getelementptr inbounds nuw %struct.Map_MatchStruct_t_, ptr %196, i32 0, i32 2
  %198 = load i32, ptr %197, align 4, !tbaa !49
  %199 = xor i32 %198, -1
  %200 = getelementptr inbounds [2 x i32], ptr %8, i64 0, i64 1
  store i32 %199, ptr %200, align 4, !tbaa !26
  br label %224

201:                                              ; preds = %168
  %202 = load ptr, ptr %9, align 8, !tbaa !53
  %203 = getelementptr inbounds nuw %struct.Map_CutStruct_t_, ptr %202, i32 0, i32 2
  %204 = load ptr, ptr %203, align 8, !tbaa !69
  %205 = ptrtoint ptr %204 to i64
  %206 = and i64 %205, -2
  %207 = inttoptr i64 %206 to ptr
  %208 = getelementptr inbounds nuw %struct.Map_CutStruct_t_, ptr %207, i32 0, i32 9
  %209 = getelementptr inbounds [2 x %struct.Map_MatchStruct_t_], ptr %208, i64 0, i64 0
  %210 = getelementptr inbounds nuw %struct.Map_MatchStruct_t_, ptr %209, i32 0, i32 2
  %211 = load i32, ptr %210, align 4, !tbaa !49
  %212 = getelementptr inbounds [2 x i32], ptr %8, i64 0, i64 0
  store i32 %211, ptr %212, align 4, !tbaa !26
  %213 = load ptr, ptr %9, align 8, !tbaa !53
  %214 = getelementptr inbounds nuw %struct.Map_CutStruct_t_, ptr %213, i32 0, i32 2
  %215 = load ptr, ptr %214, align 8, !tbaa !69
  %216 = ptrtoint ptr %215 to i64
  %217 = and i64 %216, -2
  %218 = inttoptr i64 %217 to ptr
  %219 = getelementptr inbounds nuw %struct.Map_CutStruct_t_, ptr %218, i32 0, i32 9
  %220 = getelementptr inbounds [2 x %struct.Map_MatchStruct_t_], ptr %219, i64 0, i64 1
  %221 = getelementptr inbounds nuw %struct.Map_MatchStruct_t_, ptr %220, i32 0, i32 2
  %222 = load i32, ptr %221, align 4, !tbaa !49
  %223 = getelementptr inbounds [2 x i32], ptr %8, i64 0, i64 1
  store i32 %222, ptr %223, align 4, !tbaa !26
  br label %224

224:                                              ; preds = %201, %176
  %225 = load ptr, ptr %9, align 8, !tbaa !53
  %226 = getelementptr inbounds nuw %struct.Map_CutStruct_t_, ptr %225, i32 0, i32 8
  %227 = load i8, ptr %226, align 1, !tbaa !70
  %228 = icmp ne i8 %227, 0
  br i1 %228, label %248, label %229

229:                                              ; preds = %224
  %230 = getelementptr inbounds [2 x i32], ptr %7, i64 0, i64 0
  %231 = load i32, ptr %230, align 4, !tbaa !26
  %232 = getelementptr inbounds [2 x i32], ptr %8, i64 0, i64 0
  %233 = load i32, ptr %232, align 4, !tbaa !26
  %234 = and i32 %231, %233
  %235 = load ptr, ptr %9, align 8, !tbaa !53
  %236 = getelementptr inbounds nuw %struct.Map_CutStruct_t_, ptr %235, i32 0, i32 9
  %237 = getelementptr inbounds [2 x %struct.Map_MatchStruct_t_], ptr %236, i64 0, i64 0
  %238 = getelementptr inbounds nuw %struct.Map_MatchStruct_t_, ptr %237, i32 0, i32 2
  store i32 %234, ptr %238, align 4, !tbaa !49
  %239 = getelementptr inbounds [2 x i32], ptr %7, i64 0, i64 1
  %240 = load i32, ptr %239, align 4, !tbaa !26
  %241 = getelementptr inbounds [2 x i32], ptr %8, i64 0, i64 1
  %242 = load i32, ptr %241, align 4, !tbaa !26
  %243 = and i32 %240, %242
  %244 = load ptr, ptr %9, align 8, !tbaa !53
  %245 = getelementptr inbounds nuw %struct.Map_CutStruct_t_, ptr %244, i32 0, i32 9
  %246 = getelementptr inbounds [2 x %struct.Map_MatchStruct_t_], ptr %245, i64 0, i64 1
  %247 = getelementptr inbounds nuw %struct.Map_MatchStruct_t_, ptr %246, i32 0, i32 2
  store i32 %243, ptr %247, align 4, !tbaa !49
  br label %269

248:                                              ; preds = %224
  %249 = getelementptr inbounds [2 x i32], ptr %7, i64 0, i64 0
  %250 = load i32, ptr %249, align 4, !tbaa !26
  %251 = getelementptr inbounds [2 x i32], ptr %8, i64 0, i64 0
  %252 = load i32, ptr %251, align 4, !tbaa !26
  %253 = and i32 %250, %252
  %254 = xor i32 %253, -1
  %255 = load ptr, ptr %9, align 8, !tbaa !53
  %256 = getelementptr inbounds nuw %struct.Map_CutStruct_t_, ptr %255, i32 0, i32 9
  %257 = getelementptr inbounds [2 x %struct.Map_MatchStruct_t_], ptr %256, i64 0, i64 0
  %258 = getelementptr inbounds nuw %struct.Map_MatchStruct_t_, ptr %257, i32 0, i32 2
  store i32 %254, ptr %258, align 4, !tbaa !49
  %259 = getelementptr inbounds [2 x i32], ptr %7, i64 0, i64 1
  %260 = load i32, ptr %259, align 4, !tbaa !26
  %261 = getelementptr inbounds [2 x i32], ptr %8, i64 0, i64 1
  %262 = load i32, ptr %261, align 4, !tbaa !26
  %263 = and i32 %260, %262
  %264 = xor i32 %263, -1
  %265 = load ptr, ptr %9, align 8, !tbaa !53
  %266 = getelementptr inbounds nuw %struct.Map_CutStruct_t_, ptr %265, i32 0, i32 9
  %267 = getelementptr inbounds [2 x %struct.Map_MatchStruct_t_], ptr %266, i64 0, i64 1
  %268 = getelementptr inbounds nuw %struct.Map_MatchStruct_t_, ptr %267, i32 0, i32 2
  store i32 %264, ptr %268, align 4, !tbaa !49
  br label %269

269:                                              ; preds = %248, %229
  br label %270

270:                                              ; preds = %269
  %271 = load i32, ptr %10, align 4, !tbaa !26
  %272 = add nsw i32 %271, 1
  store i32 %272, ptr %10, align 4, !tbaa !26
  br label %93, !llvm.loop !71

273:                                              ; preds = %93
  %274 = load ptr, ptr %9, align 8, !tbaa !53
  %275 = getelementptr inbounds nuw %struct.Map_CutStruct_t_, ptr %274, i32 0, i32 9
  %276 = getelementptr inbounds [2 x %struct.Map_MatchStruct_t_], ptr %275, i64 0, i64 0
  %277 = getelementptr inbounds nuw %struct.Map_MatchStruct_t_, ptr %276, i32 0, i32 2
  %278 = load i32, ptr %277, align 4, !tbaa !49
  %279 = load ptr, ptr %6, align 8, !tbaa !59
  %280 = getelementptr inbounds i32, ptr %279, i64 0
  store i32 %278, ptr %280, align 4, !tbaa !26
  %281 = load ptr, ptr %9, align 8, !tbaa !53
  %282 = getelementptr inbounds nuw %struct.Map_CutStruct_t_, ptr %281, i32 0, i32 9
  %283 = getelementptr inbounds [2 x %struct.Map_MatchStruct_t_], ptr %282, i64 0, i64 1
  %284 = getelementptr inbounds nuw %struct.Map_MatchStruct_t_, ptr %283, i32 0, i32 2
  %285 = load i32, ptr %284, align 4, !tbaa !49
  %286 = load ptr, ptr %6, align 8, !tbaa !59
  %287 = getelementptr inbounds i32, ptr %286, i64 1
  store i32 %285, ptr %287, align 4, !tbaa !26
  call void @llvm.lifetime.end.p0(i64 4, ptr %10) #4
  call void @llvm.lifetime.end.p0(i64 8, ptr %9) #4
  call void @llvm.lifetime.end.p0(i64 8, ptr %8) #4
  call void @llvm.lifetime.end.p0(i64 8, ptr %7) #4
  ret void
}