; Function Attrs: nounwind uwtable
define void @Map_TruthsCutOne(ptr noundef readonly captures(none) %0, ptr noundef %1, ptr noundef writeonly captures(none) %2) local_unnamed_addr #0 {
  %4 = getelementptr inbounds nuw i8, ptr %1, i64 76
  %5 = load i8, ptr %4, align 4, !tbaa !49
  %6 = icmp sgt i8 %5, 0
  br i1 %6, label %.lr.ph, label %._crit_edge

.lr.ph:                                           ; preds = %3
  %wide.trip.count = zext nneg i8 %5 to i64
  %7 = getelementptr inbounds nuw i8, ptr %1, i64 24
  %8 = getelementptr inbounds nuw i8, ptr %0, i64 184
  br label %9

9:                                                ; preds = %.lr.ph, %9
  %indvars.iv = phi i64 [ 0, %.lr.ph ], [ %indvars.iv.next, %9 ]
  %10 = getelementptr inbounds nuw [6 x ptr], ptr %7, i64 0, i64 %indvars.iv
  %11 = load ptr, ptr %10, align 8, !tbaa !27
  %12 = getelementptr inbounds nuw i8, ptr %11, i64 160
  %13 = load ptr, ptr %12, align 8, !tbaa !28
  %14 = getelementptr inbounds nuw i8, ptr %13, i64 78
  store i8 1, ptr %14, align 2, !tbaa !50
  %15 = getelementptr inbounds nuw [6 x [2 x i32]], ptr %8, i64 0, i64 %indvars.iv
  %16 = load i32, ptr %15, align 8, !tbaa !51
  %17 = getelementptr inbounds nuw i8, ptr %13, i64 92
  store i32 %16, ptr %17, align 4, !tbaa !45
  %18 = getelementptr inbounds nuw i8, ptr %15, i64 4
  %19 = load i32, ptr %18, align 4, !tbaa !51
  %20 = getelementptr inbounds nuw i8, ptr %13, i64 132
  store i32 %19, ptr %20, align 4, !tbaa !45
  %indvars.iv.next = add nuw nsw i64 %indvars.iv, 1
  %exitcond.not = icmp eq i64 %indvars.iv.next, %wide.trip.count
  br i1 %exitcond.not, label %._crit_edge, label %9, !llvm.loop !52

._crit_edge:                                      ; preds = %9, %3
  %.053.lcssa = phi ptr [ null, %3 ], [ %13, %9 ]
  %21 = getelementptr inbounds nuw i8, ptr %0, i64 1768
  %22 = load ptr, ptr %21, align 8, !tbaa !54
  %23 = getelementptr inbounds nuw i8, ptr %22, i64 8
  store i32 0, ptr %23, align 8, !tbaa !22
  tail call fastcc void @Map_CutsCollect_rec(ptr noundef nonnull %1, ptr noundef %22)
  %24 = load ptr, ptr %21, align 8, !tbaa !54
  %25 = getelementptr inbounds nuw i8, ptr %24, i64 8
  %26 = load i32, ptr %25, align 8, !tbaa !22
  %27 = trunc i32 %26 to i8
  %28 = getelementptr inbounds nuw i8, ptr %1, i64 77
  store i8 %27, ptr %28, align 1, !tbaa !55
  %29 = load i8, ptr %4, align 4, !tbaa !49
  %30 = icmp sgt i8 %29, 0
  br i1 %30, label %.lr.ph61, label %.preheader

.lr.ph61:                                         ; preds = %._crit_edge
  %wide.trip.count73 = zext nneg i8 %29 to i64
  %31 = getelementptr inbounds nuw i8, ptr %1, i64 24
  br label %34

.preheader:                                       ; preds = %34, %._crit_edge
  %.154.lcssa = phi ptr [ %.053.lcssa, %._crit_edge ], [ %38, %34 ]
  %32 = icmp sgt i32 %26, 0
  br i1 %32, label %.lr.ph64, label %.preheader.._crit_edge65_crit_edge

.preheader.._crit_edge65_crit_edge:               ; preds = %.preheader
  %.phi.trans.insert = getelementptr inbounds nuw i8, ptr %.154.lcssa, i64 92
  %.pre = load i32, ptr %.phi.trans.insert, align 4, !tbaa !45
  br label %._crit_edge65

.lr.ph64:                                         ; preds = %.preheader
  %33 = load ptr, ptr %24, align 8, !tbaa !26
  %wide.trip.count78 = zext nneg i32 %26 to i64
  br label %40

34:                                               ; preds = %.lr.ph61, %34
  %indvars.iv70 = phi i64 [ 0, %.lr.ph61 ], [ %indvars.iv.next71, %34 ]
  %35 = getelementptr inbounds nuw [6 x ptr], ptr %31, i64 0, i64 %indvars.iv70
  %36 = load ptr, ptr %35, align 8, !tbaa !27
  %37 = getelementptr inbounds nuw i8, ptr %36, i64 160
  %38 = load ptr, ptr %37, align 8, !tbaa !28
  %39 = getelementptr inbounds nuw i8, ptr %38, i64 78
  store i8 0, ptr %39, align 2, !tbaa !50
  %indvars.iv.next71 = add nuw nsw i64 %indvars.iv70, 1
  %exitcond74.not = icmp eq i64 %indvars.iv.next71, %wide.trip.count73
  br i1 %exitcond74.not, label %.preheader, label %34, !llvm.loop !56

40:                                               ; preds = %.lr.ph64, %81
  %indvars.iv75 = phi i64 [ 0, %.lr.ph64 ], [ %indvars.iv.next76, %81 ]
  %41 = getelementptr inbounds nuw ptr, ptr %33, i64 %indvars.iv75
  %42 = load ptr, ptr %41, align 8, !tbaa !27
  %43 = getelementptr inbounds nuw i8, ptr %42, i64 78
  store i8 0, ptr %43, align 2, !tbaa !50
  %44 = getelementptr inbounds nuw i8, ptr %42, i64 8
  %45 = load ptr, ptr %44, align 8, !tbaa !57
  %46 = ptrtoint ptr %45 to i64
  %47 = and i64 %46, 1
  %.not = icmp eq i64 %47, 0
  br i1 %.not, label %57, label %48

48:                                               ; preds = %40
  %49 = and i64 %46, -2
  %50 = inttoptr i64 %49 to ptr
  %51 = getelementptr inbounds nuw i8, ptr %50, i64 92
  %52 = load i32, ptr %51, align 4, !tbaa !45
  %53 = xor i32 %52, -1
  %54 = getelementptr inbounds nuw i8, ptr %50, i64 132
  %55 = load i32, ptr %54, align 4, !tbaa !45
  %56 = xor i32 %55, -1
  br label %62

57:                                               ; preds = %40
  %58 = getelementptr inbounds nuw i8, ptr %45, i64 92
  %59 = load i32, ptr %58, align 4, !tbaa !45
  %60 = getelementptr inbounds nuw i8, ptr %45, i64 132
  %61 = load i32, ptr %60, align 4, !tbaa !45
  br label %62

62:                                               ; preds = %57, %48
  %.sroa.636.0 = phi i32 [ %56, %48 ], [ %61, %57 ]
  %.sroa.034.0 = phi i32 [ %53, %48 ], [ %59, %57 ]
  %63 = getelementptr inbounds nuw i8, ptr %42, i64 16
  %64 = load ptr, ptr %63, align 8, !tbaa !58
  %65 = ptrtoint ptr %64 to i64
  %66 = and i64 %65, 1
  %.not56 = icmp eq i64 %66, 0
  br i1 %.not56, label %76, label %67

67:                                               ; preds = %62
  %68 = and i64 %65, -2
  %69 = inttoptr i64 %68 to ptr
  %70 = getelementptr inbounds nuw i8, ptr %69, i64 92
  %71 = load i32, ptr %70, align 4, !tbaa !45
  %72 = xor i32 %71, -1
  %73 = getelementptr inbounds nuw i8, ptr %69, i64 132
  %74 = load i32, ptr %73, align 4, !tbaa !45
  %75 = xor i32 %74, -1
  br label %81

76:                                               ; preds = %62
  %77 = getelementptr inbounds nuw i8, ptr %64, i64 92
  %78 = load i32, ptr %77, align 4, !tbaa !45
  %79 = getelementptr inbounds nuw i8, ptr %64, i64 132
  %80 = load i32, ptr %79, align 4, !tbaa !45
  br label %81

81:                                               ; preds = %76, %67
  %.sroa.6.0 = phi i32 [ %75, %67 ], [ %80, %76 ]
  %.sroa.0.0 = phi i32 [ %72, %67 ], [ %78, %76 ]
  %82 = getelementptr inbounds nuw i8, ptr %42, i64 79
  %83 = load i8, ptr %82, align 1, !tbaa !59
  %.not57 = icmp ne i8 %83, 0
  %84 = and i32 %.sroa.0.0, %.sroa.034.0
  %85 = and i32 %.sroa.6.0, %.sroa.636.0
  %86 = and i32 %.sroa.6.0, %.sroa.636.0
  %87 = xor i32 %86, -1
  %88 = sext i1 %.not57 to i32
  %.sink80 = xor i32 %84, %88
  %.sink = select i1 %.not57, i32 %87, i32 %85
  %89 = getelementptr inbounds nuw i8, ptr %42, i64 92
  store i32 %.sink80, ptr %89, align 4, !tbaa !45
  %90 = getelementptr inbounds nuw i8, ptr %42, i64 132
  store i32 %.sink, ptr %90, align 4, !tbaa !45
  %indvars.iv.next76 = add nuw nsw i64 %indvars.iv75, 1
  %exitcond79.not = icmp eq i64 %indvars.iv.next76, %wide.trip.count78
  br i1 %exitcond79.not, label %._crit_edge65, label %40, !llvm.loop !60

._crit_edge65:                                    ; preds = %81, %.preheader.._crit_edge65_crit_edge
  %91 = phi i32 [ %.pre, %.preheader.._crit_edge65_crit_edge ], [ %.sink80, %81 ]
  %.255.lcssa = phi ptr [ %.154.lcssa, %.preheader.._crit_edge65_crit_edge ], [ %42, %81 ]
  store i32 %91, ptr %2, align 4, !tbaa !51
  %92 = getelementptr inbounds nuw i8, ptr %.255.lcssa, i64 132
  %93 = load i32, ptr %92, align 4, !tbaa !45
  %94 = getelementptr inbounds nuw i8, ptr %2, i64 4
  store i32 %93, ptr %94, align 4, !tbaa !51
  ret void
}